; Function Attrs: mustprogress nofree norecurse nosync nounwind memory(readwrite, inaccessiblemem: none) uwtable
define hidden void @_ZN3sat4prob21init_near_best_valuesEv(ptr nocapture noundef nonnull align 8 dereferenceable(816) %this) local_unnamed_addr #9 align 2 {
entry:
  %m_values = getelementptr inbounds i8, ptr %this, i64 656
  %m_rand = getelementptr inbounds i8, ptr %this, i64 744
  %m_config = getelementptr inbounds i8, ptr %this, i64 8
  %m_best_values7 = getelementptr inbounds i8, ptr %this, i64 664
  br label %for.cond

for.cond:                                         ; preds = %for.body, %entry
  %indvars.iv = phi i64 [ %indvars.iv.next, %for.body ], [ 0, %entry ]
  %0 = load ptr, ptr %m_values, align 8
  %cmp.i = icmp eq ptr %0, null
  br i1 %cmp.i, label %_ZNK6vectorIbLb0EjE4sizeEv.exit, label %if.end.i

if.end.i:                                         ; preds = %for.cond
  %arrayidx.i = getelementptr inbounds i8, ptr %0, i64 -4
  %1 = load i32, ptr %arrayidx.i, align 4
  br label %_ZNK6vectorIbLb0EjE4sizeEv.exit

_ZNK6vectorIbLb0EjE4sizeEv.exit:                  ; preds = %for.cond, %if.end.i
  %retval.0.i = phi i32 [ %1, %if.end.i ], [ 0, %for.cond ]
  %2 = zext i32 %retval.0.i to i64
  %cmp = icmp ult i64 %indvars.iv, %2
  br i1 %cmp, label %for.body, label %for.end

for.body:                                         ; preds = %_ZNK6vectorIbLb0EjE4sizeEv.exit
  %3 = load i32, ptr %m_rand, align 8
  %mul.i.i = mul i32 %3, 214013
  %add.i.i = add i32 %mul.i.i, 2531011
  store i32 %add.i.i, ptr %m_rand, align 8
  %shr.i.i = lshr i32 %add.i.i, 16
  %4 = trunc i32 %shr.i.i to i16
  %rem.i.lhs.trunc = and i16 %4, 32767
  %rem.i13 = urem i16 %rem.i.lhs.trunc, 100
  %rem.i.zext = zext nneg i16 %rem.i13 to i32
  %5 = load i32, ptr %m_config, align 8
  %cmp3 = icmp ugt i32 %5, %rem.i.zext
  %6 = load ptr, ptr %m_best_values7, align 8
  %arrayidx.i6 = getelementptr inbounds i8, ptr %6, i64 %indvars.iv
  %7 = load i8, ptr %arrayidx.i6, align 1
  %8 = and i8 %7, 1
  %frombool = zext i1 %cmp3 to i8
  %.sink = xor i8 %8, %frombool
  %9 = getelementptr inbounds i8, ptr %0, i64 %indvars.iv
  store i8 %.sink, ptr %9, align 1
  %indvars.iv.next = add nuw nsw i64 %indvars.iv, 1
  br label %for.cond, !llvm.loop !6

for.end:                                          ; preds = %_ZNK6vectorIbLb0EjE4sizeEv.exit
  ret void
}